; Function Attrs: mustprogress uwtable
define void @_ZN11ImageViewer13updateActionsEv(ptr noundef nonnull readonly align 8 captures(none) dereferenceable(160) %0) local_unnamed_addr #0 align 2 {
  %2 = getelementptr inbounds nuw i8, ptr %0, i64 104
  %3 = load ptr, ptr %2, align 8, !tbaa !58
  %4 = getelementptr inbounds nuw i8, ptr %0, i64 128
  %5 = load ptr, ptr %4, align 8, !tbaa !70
  %6 = tail call noundef zeroext i1 @_ZNK7QAction9isCheckedEv(ptr noundef nonnull align 8 dereferenceable(16) %5)
  %7 = xor i1 %6, true
  tail call void @_ZN7QAction10setEnabledEb(ptr noundef nonnull align 8 dereferenceable(16) %3, i1 noundef zeroext %7)
  %8 = getelementptr inbounds nuw i8, ptr %0, i64 112
  %9 = load ptr, ptr %8, align 8, !tbaa !62
  %10 = load ptr, ptr %4, align 8, !tbaa !70
  %11 = tail call noundef zeroext i1 @_ZNK7QAction9isCheckedEv(ptr noundef nonnull align 8 dereferenceable(16) %10)
  %12 = xor i1 %11, true
  tail call void @_ZN7QAction10setEnabledEb(ptr noundef nonnull align 8 dereferenceable(16) %9, i1 noundef zeroext %12)
  %13 = getelementptr inbounds nuw i8, ptr %0, i64 120
  %14 = load ptr, ptr %13, align 8, !tbaa !66
  %15 = load ptr, ptr %4, align 8, !tbaa !70
  %16 = tail call noundef zeroext i1 @_ZNK7QAction9isCheckedEv(ptr noundef nonnull align 8 dereferenceable(16) %15)
  %17 = xor i1 %16, true
  tail call void @_ZN7QAction10setEnabledEb(ptr noundef nonnull align 8 dereferenceable(16) %14, i1 noundef zeroext %17)
  ret void
}